; Function Attrs: mustprogress uwtable
define noundef zeroext i1 @_ZNK8facebook3jsi5Value6asBoolEv(ptr nocapture noundef nonnull readonly align 8 dereferenceable(16) %this) local_unnamed_addr #11 align 2 personality ptr @__gxx_personality_v0 {
entry:
  %agg.tmp = alloca %"class.std::__cxx11::basic_string", align 8
  %ref.tmp = alloca %"class.std::__cxx11::basic_string", align 8
  %ref.tmp2 = alloca %"class.std::__cxx11::basic_string", align 8
  %0 = load i32, ptr %this, align 8
  %cmp.i = icmp eq i32 %0, 2
  br i1 %cmp.i, label %if.end, label %if.then

if.then:                                          ; preds = %entry
  %exception = tail call ptr @__cxa_allocate_exception(i64 40) #23
  invoke fastcc void @_ZN8facebook3jsi12_GLOBAL__N_112kindToStringB5cxx11ERKNS0_5ValueEPNS0_7RuntimeE(ptr noalias nonnull align 8 %ref.tmp2, ptr noundef nonnull align 8 dereferenceable(16) %this, ptr noundef null)
          to label %invoke.cont unwind label %ehcleanup10.thread

invoke.cont:                                      ; preds = %if.then
  %call.i4 = invoke noundef nonnull align 8 dereferenceable(32) ptr @_ZNSt7__cxx1112basic_stringIcSt11char_traitsIcESaIcEE6insertEmPKc(ptr noundef nonnull align 8 dereferenceable(32) %ref.tmp2, i64 noundef 0, ptr noundef nonnull @.str.12)
          to label %invoke.cont4 unwind label %ehcleanup10.thread10

invoke.cont4:                                     ; preds = %invoke.cont
  call void @_ZNSt7__cxx1112basic_stringIcSt11char_traitsIcESaIcEEC1EOS4_(ptr noundef nonnull align 8 dereferenceable(32) %ref.tmp, ptr noundef nonnull align 8 dereferenceable(32) %call.i4) #23
  %call.i5 = invoke noundef nonnull align 8 dereferenceable(32) ptr @_ZNSt7__cxx1112basic_stringIcSt11char_traitsIcESaIcEE6appendEPKc(ptr noundef nonnull align 8 dereferenceable(32) %ref.tmp, ptr noundef nonnull @.str.13)
          to label %invoke.cont6 unwind label %lpad5

invoke.cont6:                                     ; preds = %invoke.cont4
  call void @_ZNSt7__cxx1112basic_stringIcSt11char_traitsIcESaIcEEC1EOS4_(ptr noundef nonnull align 8 dereferenceable(32) %agg.tmp, ptr noundef nonnull align 8 dereferenceable(32) %call.i5) #23
  invoke void @_ZN8facebook3jsi18JSINativeExceptionC2ENSt7__cxx1112basic_stringIcSt11char_traitsIcESaIcEEE(ptr noundef nonnull align 8 dereferenceable(40) %exception, ptr noundef nonnull %agg.tmp)
          to label %invoke.cont8 unwind label %lpad7

invoke.cont8:                                     ; preds = %invoke.cont6
  invoke void @__cxa_throw(ptr nonnull %exception, ptr nonnull @_ZTIN8facebook3jsi18JSINativeExceptionE, ptr nonnull @_ZN8facebook3jsi18JSINativeExceptionD1Ev) #24
          to label %unreachable unwind label %lpad7

ehcleanup10.thread:                               ; preds = %if.then
  %1 = landingpad { ptr, i32 }
          cleanup
  br label %cleanup.action

ehcleanup10.thread10:                             ; preds = %invoke.cont
  %2 = landingpad { ptr, i32 }
          cleanup
  call void @_ZNSt7__cxx1112basic_stringIcSt11char_traitsIcESaIcEED1Ev(ptr noundef nonnull align 8 dereferenceable(32) %ref.tmp2) #23
  br label %cleanup.action

lpad5:                                            ; preds = %invoke.cont4
  %3 = landingpad { ptr, i32 }
          cleanup
  br label %ehcleanup10

lpad7:                                            ; preds = %invoke.cont8, %invoke.cont6
  %cleanup.isactive.0 = phi i1 [ false, %invoke.cont8 ], [ true, %invoke.cont6 ]
  %4 = landingpad { ptr, i32 }
          cleanup
  call void @_ZNSt7__cxx1112basic_stringIcSt11char_traitsIcESaIcEED1Ev(ptr noundef nonnull align 8 dereferenceable(32) %agg.tmp) #23
  br label %ehcleanup10

ehcleanup10:                                      ; preds = %lpad5, %lpad7
  %.pn = phi { ptr, i32 } [ %4, %lpad7 ], [ %3, %lpad5 ]
  %cleanup.isactive.1 = phi i1 [ %cleanup.isactive.0, %lpad7 ], [ true, %lpad5 ]
  call void @_ZNSt7__cxx1112basic_stringIcSt11char_traitsIcESaIcEED1Ev(ptr noundef nonnull align 8 dereferenceable(32) %ref.tmp) #23
  call void @_ZNSt7__cxx1112basic_stringIcSt11char_traitsIcESaIcEED1Ev(ptr noundef nonnull align 8 dereferenceable(32) %ref.tmp2) #23
  br i1 %cleanup.isactive.1, label %cleanup.action, label %eh.resume

cleanup.action:                                   ; preds = %ehcleanup10.thread10, %ehcleanup10.thread, %ehcleanup10
  %.pn.pn.pn9 = phi { ptr, i32 } [ %1, %ehcleanup10.thread ], [ %.pn, %ehcleanup10 ], [ %2, %ehcleanup10.thread10 ]
  call void @__cxa_free_exception(ptr %exception) #23
  br label %eh.resume

if.end:                                           ; preds = %entry
  %data_.i = getelementptr inbounds i8, ptr %this, i64 8
  %5 = load i8, ptr %data_.i, align 8
  %6 = and i8 %5, 1
  %tobool.i = icmp ne i8 %6, 0
  ret i1 %tobool.i

eh.resume:                                        ; preds = %ehcleanup10, %cleanup.action
  %.pn.pn.pn8 = phi { ptr, i32 } [ %.pn, %ehcleanup10 ], [ %.pn.pn.pn9, %cleanup.action ]
  resume { ptr, i32 } %.pn.pn.pn8

unreachable:                                      ; preds = %invoke.cont8
  unreachable
}